; Function Attrs: nounwind uwtable
define zeroext range(i8 0, 2) i8 @l_Array_contains___at_Lake_StrPatDescr_matches___spec__1(ptr noundef readonly captures(none) %0, ptr noundef %1) local_unnamed_addr #0 {
lean_nat_lt.exit:
  %2 = getelementptr i8, ptr %0, i64 8
  %.val = load i64, ptr %2, align 8, !tbaa !12
  %.mask = and i64 %.val, 9223372036854775807
  %.not = icmp eq i64 %.mask, 0
  br i1 %.not, label %lean_dec.exit13, label %.lr.ph.i

.lr.ph.i:                                         ; preds = %lean_nat_lt.exit
  %3 = getelementptr inbounds nuw i8, ptr %0, i64 24
  %4 = getelementptr i8, ptr %1, i64 8
  br label %7

5:                                                ; preds = %lean_dec.exit.i
  %6 = add nuw nsw i64 %.01530.i, 1
  %.not.i17 = icmp eq i64 %6, %.mask
  br i1 %.not.i17, label %lean_dec.exit13, label %7

7:                                                ; preds = %5, %.lr.ph.i
  %.01530.i = phi i64 [ 0, %.lr.ph.i ], [ %6, %5 ]
  %8 = getelementptr inbounds nuw [0 x ptr], ptr %3, i64 0, i64 %.01530.i
  %9 = load ptr, ptr %8, align 8, !tbaa !4
  %10 = ptrtoint ptr %9 to i64
  %11 = and i64 %10, 1
  %.not.i20.i = icmp eq i64 %11, 0
  br i1 %.not.i20.i, label %12, label %lean_array_uget.exit.i

12:                                               ; preds = %7
  %.val.i.i.i = load i32, ptr %9, align 4, !tbaa !8
  %13 = icmp sgt i32 %.val.i.i.i, 0
  br i1 %13, label %14, label %16, !prof !11

14:                                               ; preds = %12
  %15 = add nuw i32 %.val.i.i.i, 1
  store i32 %15, ptr %9, align 4, !tbaa !8
  br label %lean_array_uget.exit.i

16:                                               ; preds = %12
  %.not.i.i.i = icmp eq i32 %.val.i.i.i, 0
  br i1 %.not.i.i.i, label %lean_array_uget.exit.i, label %17

17:                                               ; preds = %16
  tail call void @lean_inc_ref_cold(ptr noundef nonnull %9) #7
  br label %lean_array_uget.exit.i

lean_array_uget.exit.i:                           ; preds = %17, %16, %14, %7
  %18 = icmp eq ptr %1, %9
  br i1 %18, label %lean_string_dec_eq.exit.i, label %19

19:                                               ; preds = %lean_array_uget.exit.i
  %.val.i.i21.i = load i64, ptr %4, align 8, !tbaa !12
  %20 = getelementptr i8, ptr %9, i64 8
  %.val7.i.i.i = load i64, ptr %20, align 8, !tbaa !12
  %21 = icmp eq i64 %.val.i.i21.i, %.val7.i.i.i
  br i1 %21, label %22, label %lean_string_dec_eq.exit.i

22:                                               ; preds = %19
  %23 = tail call zeroext i1 @lean_string_eq_cold(ptr noundef nonnull %1, ptr noundef nonnull %9) #7
  %24 = xor i1 %23, true
  br label %lean_string_dec_eq.exit.i

lean_string_dec_eq.exit.i:                        ; preds = %22, %19, %lean_array_uget.exit.i
  %25 = phi i1 [ false, %lean_array_uget.exit.i ], [ true, %19 ], [ %24, %22 ]
  br i1 %.not.i20.i, label %26, label %lean_dec.exit.i

26:                                               ; preds = %lean_string_dec_eq.exit.i
  %27 = load i32, ptr %9, align 4, !tbaa !8
  %28 = icmp sgt i32 %27, 1
  br i1 %28, label %29, label %31, !prof !11

29:                                               ; preds = %26
  %30 = add nsw i32 %27, -1
  store i32 %30, ptr %9, align 4, !tbaa !8
  br label %lean_dec.exit.i

31:                                               ; preds = %26
  %.not.i.i = icmp eq i32 %27, 0
  br i1 %.not.i.i, label %lean_dec.exit.i, label %32

32:                                               ; preds = %31
  tail call void @lean_dec_ref_cold(ptr noundef nonnull %9) #7
  br label %lean_dec.exit.i

lean_dec.exit.i:                                  ; preds = %32, %31, %29, %lean_string_dec_eq.exit.i
  br i1 %25, label %5, label %lean_dec.exit13

lean_dec.exit13:                                  ; preds = %lean_dec.exit.i, %5, %lean_nat_lt.exit
  %.0 = phi i8 [ 0, %lean_nat_lt.exit ], [ 0, %5 ], [ 1, %lean_dec.exit.i ]
  ret i8 %.0
}